; Function Attrs: mustprogress nofree norecurse nosync nounwind willreturn memory(read, inaccessiblemem: none) uwtable
define dso_local noundef i32 @_ZNK12VectorFilter12get_max_probEv(ptr nocapture noundef nonnull readonly align 8 dereferenceable(52) %0) local_unnamed_addr #5 align 2 {
  %2 = getelementptr inbounds i8, ptr %0, i64 40
  %3 = load ptr, ptr %2, align 8
  %.not = icmp eq ptr %3, null
  br i1 %.not, label %6, label %4

4:                                                ; preds = %1
  %5 = load i32, ptr %3, align 8
  br label %6

6:                                                ; preds = %1, %4
  %7 = phi i32 [ %5, %4 ], [ 100, %1 ]
  ret i32 %7
}